; Function Attrs: mustprogress uwtable
define void @Z3_solver_propagate_diseq(ptr noundef initializes((1568, 1572)) %0, ptr noundef readonly captures(none) %1, ptr noundef %2) local_unnamed_addr #3 personality ptr @__gxx_personality_v0 {
  %4 = alloca %"class.std::function.176", align 8
  %5 = getelementptr inbounds nuw i8, ptr %0, i64 1568
  store i32 0, ptr %5, align 8, !tbaa !85
  call void @llvm.lifetime.start.p0(i64 32, ptr nonnull %4) #25
  call void @llvm.memset.p0.i64(ptr noundef nonnull align 8 dereferenceable(32) %4, i8 0, i64 32, i1 false)
  %.not.i = icmp eq ptr %2, null
  br i1 %.not.i, label %9, label %6

6:                                                ; preds = %3
  %7 = getelementptr inbounds nuw i8, ptr %4, i64 24
  %8 = getelementptr inbounds nuw i8, ptr %4, i64 16
  store ptr %2, ptr %4, align 8, !tbaa !440
  store ptr @_ZNSt17_Function_handlerIFvPvPN15user_propagator8callbackEP4exprS5_EPS6_E9_M_invokeERKSt9_Any_dataOS0_OS3_OS5_SE_, ptr %7, align 8, !tbaa !541
  store ptr @_ZNSt17_Function_handlerIFvPvPN15user_propagator8callbackEP4exprS5_EPS6_E10_M_managerERSt9_Any_dataRKS9_St18_Manager_operation, ptr %8, align 8, !tbaa !534
  br label %9

9:                                                ; preds = %6, %3
  %10 = getelementptr inbounds nuw i8, ptr %1, i64 32
  %11 = load ptr, ptr %10, align 8, !tbaa !84
  %12 = getelementptr inbounds nuw i8, ptr %11, i64 72
  %13 = load ptr, ptr %12, align 8, !tbaa !27
  %14 = getelementptr inbounds nuw i8, ptr %13, i64 48
  %15 = load ptr, ptr %14, align 8
  invoke void %15(ptr noundef nonnull align 8 dereferenceable(8) %12, ptr noundef nonnull align 8 dereferenceable(32) %4)
          to label %16 unwind label %24

16:                                               ; preds = %9
  %17 = getelementptr inbounds nuw i8, ptr %4, i64 16
  %18 = load ptr, ptr %17, align 8, !tbaa !534
  %.not.i10 = icmp eq ptr %18, null
  br i1 %.not.i10, label %_ZNSt14_Function_baseD2Ev.exit, label %19

19:                                               ; preds = %16
  %20 = invoke noundef zeroext i1 %18(ptr noundef nonnull align 8 dereferenceable(32) %4, ptr noundef nonnull align 8 dereferenceable(32) %4, i32 noundef 3)
          to label %_ZNSt14_Function_baseD2Ev.exit unwind label %21

21:                                               ; preds = %19
  %22 = landingpad { ptr, i32 }
          catch ptr null
  %23 = extractvalue { ptr, i32 } %22, 0
  call void @__clang_call_terminate(ptr %23) #28
  unreachable

_ZNSt14_Function_baseD2Ev.exit:                   ; preds = %16, %19
  call void @llvm.lifetime.end.p0(i64 32, ptr nonnull %4) #25
  br label %42

24:                                               ; preds = %9
  %25 = landingpad { ptr, i32 }
          cleanup
          catch ptr @_ZTI12z3_exception
  %26 = extractvalue { ptr, i32 } %25, 1
  %27 = getelementptr inbounds nuw i8, ptr %4, i64 16
  %28 = load ptr, ptr %27, align 8, !tbaa !534
  %.not.i11 = icmp eq ptr %28, null
  br i1 %.not.i11, label %_ZNSt14_Function_baseD2Ev.exit12, label %29

29:                                               ; preds = %24
  %30 = invoke noundef zeroext i1 %28(ptr noundef nonnull align 8 dereferenceable(32) %4, ptr noundef nonnull align 8 dereferenceable(32) %4, i32 noundef 3)
          to label %_ZNSt14_Function_baseD2Ev.exit12 unwind label %31

31:                                               ; preds = %29
  %32 = landingpad { ptr, i32 }
          catch ptr null
  %33 = extractvalue { ptr, i32 } %32, 0
  call void @__clang_call_terminate(ptr %33) #28
  unreachable

_ZNSt14_Function_baseD2Ev.exit12:                 ; preds = %24, %29
  call void @llvm.lifetime.end.p0(i64 32, ptr nonnull %4) #25
  %34 = call i32 @llvm.eh.typeid.for.p0(ptr nonnull @_ZTI12z3_exception) #25
  %35 = icmp eq i32 %26, %34
  br i1 %35, label %36, label %43

36:                                               ; preds = %_ZNSt14_Function_baseD2Ev.exit12
  %37 = extractvalue { ptr, i32 } %25, 0
  %38 = call ptr @__cxa_begin_catch(ptr %37) #25
  invoke void @_ZN3api7context16handle_exceptionER12z3_exception(ptr noundef nonnull align 8 dereferenceable(3056) %0, ptr noundef nonnull align 8 dereferenceable(8) %38)
          to label %39 unwind label %40

39:                                               ; preds = %36
  call void @__cxa_end_catch()
  br label %42

40:                                               ; preds = %36
  %41 = landingpad { ptr, i32 }
          cleanup
  invoke void @__cxa_end_catch()
          to label %43 unwind label %44

42:                                               ; preds = %39, %_ZNSt14_Function_baseD2Ev.exit
  ret void

43:                                               ; preds = %40, %_ZNSt14_Function_baseD2Ev.exit12
  %.merged = phi { ptr, i32 } [ %25, %_ZNSt14_Function_baseD2Ev.exit12 ], [ %41, %40 ]
  resume { ptr, i32 } %.merged

44:                                               ; preds = %40
  %45 = landingpad { ptr, i32 }
          catch ptr null
  %46 = extractvalue { ptr, i32 } %45, 0
  call void @__clang_call_terminate(ptr %46) #28
  unreachable
}